(lp1
(I0
I0
tp2
a(I0
I1
tp3
a(I0
I2
tp4
a(I0
I3
tp5
a(I0
I4
tp6
a(I0
I5
tp7
a(I0
I6
tp8
a(I0
I7
tp9
a(I0
I8
tp10
a(I0
I9
tp11
a(I1
I0
tp12
a(I1
I1
tp13
a(I1
I2
tp14
a(I1
I3
tp15
a(I1
I4
tp16
a(I1
I5
tp17
a(I1
I6
tp18
a(I1
I7
tp19
a(I1
I8
tp20
a(I1
I9
tp21
a(I2
I0
tp22
a(I2
I1
tp23
a(I2
I2
tp24
a(I2
I3
tp25
a(I2
I4
tp26
a(I2
I5
tp27
a(I2
I6
tp28
a(I2
I7
tp29
a(I2
I8
tp30
a(I2
I9
tp31
a(I3
I0
tp32
a(I3
I1
tp33
a(I3
I2
tp34
a(I3
I3
tp35
a(I3
I4
tp36
a(I3
I5
tp37
a(I3
I6
tp38
a(I3
I7
tp39
a(I3
I8
tp40
a(I3
I9
tp41
a(I4
I0
tp42
a(I4
I1
tp43
a(I4
I2
tp44
a(I4
I3
tp45
a(I4
I4
tp46
a(I4
I5
tp47
a(I4
I6
tp48
a(I4
I7
tp49
a(I4
I8
tp50
a(I4
I9
tp51
a.